target datalayout = "e-m:e-p270:32:32-p271:32:32-p272:64:64-i64:64-i128:128-f80:128-n8:16:32:64-S128"
target triple = "x86_64-pc-linux-gnu"

%"class.google::protobuf::DescriptorDatabase" = type { ptr }
%"class.google::protobuf::DescriptorPoolDatabase" = type { %"class.google::protobuf::DescriptorDatabase", ptr }

; Function Attrs: mustprogress uwtable
define hidden noundef zeroext i1 @_ZN6google8protobuf22DescriptorPoolDatabase14FindFileByNameERKNSt7__cxx1112basic_stringIcSt11char_traitsIcESaIcEEEPNS0_19FileDescriptorProtoE(ptr noundef nonnull align 8 dereferenceable(16) %0, ptr noundef nonnull align 8 dereferenceable(32) %1, ptr noundef %2) unnamed_addr #6 align 2 {
  %4 = alloca i1, align 1
  %5 = alloca ptr, align 8
  %6 = alloca ptr, align 8
  %7 = alloca ptr, align 8
  %8 = alloca ptr, align 8
  %9 = alloca i32, align 4
  store ptr %0, ptr %5, align 8, !tbaa !209
  store ptr %1, ptr %6, align 8, !tbaa !12
  store ptr %2, ptr %7, align 8, !tbaa !24
  %10 = load ptr, ptr %5, align 8
  call void @llvm.lifetime.start.p0(i64 8, ptr %8) #3
  %11 = getelementptr inbounds nuw %"class.google::protobuf::DescriptorPoolDatabase", ptr %10, i32 0, i32 1
  %12 = load ptr, ptr %11, align 8, !tbaa !212
  %13 = load ptr, ptr %6, align 8, !tbaa !12
  %14 = call noundef ptr @_ZNK6google8protobuf14DescriptorPool14FindFileByNameERKNSt7__cxx1112basic_stringIcSt11char_traitsIcESaIcEEE(ptr noundef nonnull align 8 dereferenceable(96) %12, ptr noundef nonnull align 8 dereferenceable(32) %13)
  store ptr %14, ptr %8, align 8, !tbaa !215
  %15 = load ptr, ptr %8, align 8, !tbaa !215
  %16 = icmp eq ptr %15, null
  br i1 %16, label %17, label %18

17:                                               ; preds = %3
  store i1 false, ptr %4, align 1
  store i32 1, ptr %9, align 4
  br label %22

18:                                               ; preds = %3
  %19 = load ptr, ptr %7, align 8, !tbaa !24
  call void @_ZN6google8protobuf19FileDescriptorProto5ClearEv(ptr noundef nonnull align 8 dereferenceable(216) %19)
  %20 = load ptr, ptr %8, align 8, !tbaa !215
  %21 = load ptr, ptr %7, align 8, !tbaa !24
  call void @_ZNK6google8protobuf14FileDescriptor6CopyToEPNS0_19FileDescriptorProtoE(ptr noundef nonnull align 8 dereferenceable(144) %20, ptr noundef %21)
  store i1 true, ptr %4, align 1
  store i32 1, ptr %9, align 4
  br label %22

22:                                               ; preds = %18, %17
  call void @llvm.lifetime.end.p0(i64 8, ptr %8) #3
  %23 = load i1, ptr %4, align 1
  ret i1 %23
}